; Function Attrs: nounwind uwtable
define noundef ptr @l_Std_Sat_AIG_RefVec_cast_x27___rarg___boxed(ptr noundef returned %0, ptr readnone captures(none) %1) #1 {
  %3 = ptrtoint ptr %0 to i64
  %4 = and i64 %3, 1
  %.not.i4 = icmp eq i64 %4, 0
  br i1 %.not.i4, label %5, label %lean_dec.exit

5:                                                ; preds = %2
  %.val.i.i = load i32, ptr %0, align 4, !tbaa !8
  %6 = icmp sgt i32 %.val.i.i, 0
  br i1 %6, label %7, label %9, !prof !11

7:                                                ; preds = %5
  %8 = add nuw i32 %.val.i.i, 1
  store i32 %8, ptr %0, align 4, !tbaa !8
  br label %11

9:                                                ; preds = %5
  %.not.i.i = icmp eq i32 %.val.i.i, 0
  br i1 %.not.i.i, label %lean_dec.exit, label %10

10:                                               ; preds = %9
  tail call void @lean_inc_ref_cold(ptr noundef nonnull %0) #4
  %.pr = load i32, ptr %0, align 4, !tbaa !8
  br label %11

11:                                               ; preds = %7, %10
  %12 = phi i32 [ %8, %7 ], [ %.pr, %10 ]
  %13 = icmp sgt i32 %12, 1
  br i1 %13, label %14, label %16, !prof !16

14:                                               ; preds = %11
  %15 = add nsw i32 %12, -1
  store i32 %15, ptr %0, align 4, !tbaa !8
  br label %lean_dec.exit

16:                                               ; preds = %11
  %.not.i = icmp eq i32 %12, 0
  br i1 %.not.i, label %lean_dec.exit, label %17

17:                                               ; preds = %16
  tail call void @lean_dec_ref_cold(ptr noundef nonnull %0) #4
  br label %lean_dec.exit

lean_dec.exit:                                    ; preds = %9, %17, %16, %14, %2
  ret ptr %0
}